Certificate:
    Data:
        Version: 3 (0x2)
        Serial Number:
            01:4e:01:01:01:0b:01:01
        Signature Algorithm: ecr3410WithR3411 (1.3.6.1.4.1.5849.1.3.2)
        Issuer: C=RU, L=МОСКВА, O=ВТБ 24 (ЗАО), CN=Удостоверяющий Центр, Email=cacenter@vtb24.ru
        Validity
            Not Before: Jan 25 12:38:54 2007 GMT
            Not After : Oct  3 12:38:54 2020 GMT
        Subject: C=RU, L=МОСКВА, O=ВТБ 24 (ЗАО), CN=Удостоверяющий Центр, Email=cacenter@vtb24.ru
        Subject Public Key Info:
            Public Key Algorithm: ecr3410 (1.3.6.1.4.1.5849.1.6.2)
            ECGOST Public Key:
                pub: 
                    04:70:0e:e8:83:22:e7:e4:18:a8:ee:9e:65:26:09:
                    01:07:ea:c3:73:87:ac:13:52:b5:25:93:83:01:2d:
                    62:13:90:24:eb:c6:66:8b:5c:1f:09:f5:91:aa:d8:
                    80:7e:42:4e:48:ad:5c:1a:c4:62:fb:32:07:9f:ae:
                    b2:52:9c:1d:9f
                prime:  (256 bits)
                    00:ff:ff:ff:ff:00:00:00:01:00:00:00:00:00:00:
                    00:00:00:00:00:00:ff:ff:ff:ff:ff:ff:ff:ff:ff:
                    ff:ff:ff
                a:  (256 bits)
                    00:ff:ff:ff:ff:00:00:00:01:00:00:00:00:00:00:
                    00:00:00:00:00:00:ff:ff:ff:ff:ff:ff:ff:ff:ff:
                    ff:ff:fc
                b:  (255 bits)
                    5a:c6:35:d8:aa:3a:93:e7:b3:eb:bd:55:76:98:86:
                    bc:65:1d:06:b0:cc:53:b0:f6:3b:ce:3c:3e:27:d2:
                    60:4b
                base: 
                    04:6b:17:d1:f2:e1:2c:42:47:f8:bc:e6:e5:63:a4:
                    40:f2:77:03:7d:81:2d:eb:33:a0:f4:a1:39:45:d8:
                    98:c2:96:4f:e3:42:e2:fe:1a:7f:9b:8e:e7:eb:4a:
                    7c:0f:9e:16:2b:ce:33:57:6b:31:5e:ce:cb:b6:40:
                    68:37:bf:51:f5
                order:  (256 bits)
                    00:ff:ff:ff:ff:00:00:00:00:ff:ff:ff:ff:ff:ff:
                    ff:ff:bc:e6:fa:ad:a7:17:9e:84:f3:b9:ca:c2:fc:
                    63:25:51
                cofactor:  (1 bit)
                    01
        X509v3 extensions:
            Key Usage: 
                Digital Signature, Non Repudiation, Certificate Sign, CRL Sign
    Signature Algorithm: ecr3410WithR3411 (1.3.6.1.4.1.5849.1.3.2)
        30:45:02:20:53:78:43:01:21:19:81:77:e2:0e:e4:da:4f:bc:
        e7:5f:25:88:fc:e0:2e:51:1e:cc:8a:b8:fe:19:20:bc:3e:58:
        02:21:00:a0:a9:24:45:28:22:76:1b:18:24:4c:e1:eb:ff:15:
        8f:54:39:09:de:c5:83:76:fc:0f:4e:ad:17:80:01:33:18
-----BEGIN CERTIFICATE-----
MIIB/jCCAaCgAwIBAgIIAU4BAQELAQEwDgYKKwYBBAGtWQEDAgUAMHYxCzAJBgNV
BAYTAlJVMQ8wDQYDVQQHFAbMztHKwsAxFTATBgNVBAoUDMLSwSAyNCAox8DOKTEd
MBsGA1UEAxQU0+Tu8fLu4uXw//756Okg1uXt8vAxIDAeBgkqhkiG9w0BCQEWEWNh
Y2VudGVyQHZ0YjI0LnJ1MB4XDTA3MDEyNTEyMzg1NFoXDTIwMTAwMzEyMzg1NFow
djELMAkGA1UEBhMCUlUxDzANBgNVBAcUBszO0crCwDEVMBMGA1UEChQMwtLBIDI0
ICjHwM4pMR0wGwYDVQQDFBTT5O7x8u7i5fD//vno6SDW5e3y8DEgMB4GCSqGSIb3
DQEJARYRY2FjZW50ZXJAdnRiMjQucnUwXjAWBgorBgEEAa1ZAQYCBggqhkjOPQMB
BwNEAARBBHAO6IMi5+QYqO6eZSYJAQfqw3OHrBNStSWTgwEtYhOQJOvGZotcHwn1
karYgH5CTkitXBrEYvsyB5+uslKcHZ+jDzANMAsGA1UdDwQEAwIBxjAOBgorBgEE
Aa1ZAQMCBQADSAAwRQIgU3hDASEZgXfiDuTaT7znXyWI/OAuUR7Mirj+GSC8PlgC
IQCgqSRFKCJ2GxgkTOHr/xWPVDkJ3sWDdvwPTq0XgAEzGA==
-----END CERTIFICATE-----
