Certificate Request:
    Data:
        Version: 0 (0x0)
        Subject: C=RU, SP=г. Москва, L=г. Москва, O="ООО "РапидСофт Девелопмент"", OU=ЭДО с ВТБ24 2446, T=Генеральный директор, CN=Василян Роман Александрович, Email=romav@rapidsoft.ru
        Subject Public Key Info:
            Public Key Algorithm: ecr3410 (1.3.6.1.4.1.5849.1.6.2)
            ECGOST Public Key:
                pub: 
                    04:85:89:39:79:c0:15:61:a0:f6:23:c9:17:88:af:
                    91:90:d7:b9:e0:99:8b:27:7a:4f:bf:0b:79:82:a3:
                    45:a0:75:17:7b:8a:e5:2b:90:96:7c:bb:c6:db:fa:
                    e4:80:7f:d1:07:0c:f0:dd:b0:b4:59:49:dc:47:d8:
                    d7:d7:e5:83:51
                prime:  (256 bits)
                    00:ff:ff:ff:ff:00:00:00:01:00:00:00:00:00:00:
                    00:00:00:00:00:00:ff:ff:ff:ff:ff:ff:ff:ff:ff:
                    ff:ff:ff
                a:  (256 bits)
                    00:ff:ff:ff:ff:00:00:00:01:00:00:00:00:00:00:
                    00:00:00:00:00:00:ff:ff:ff:ff:ff:ff:ff:ff:ff:
                    ff:ff:fc
                b:  (255 bits)
                    5a:c6:35:d8:aa:3a:93:e7:b3:eb:bd:55:76:98:86:
                    bc:65:1d:06:b0:cc:53:b0:f6:3b:ce:3c:3e:27:d2:
                    60:4b
                base: 
                    04:6b:17:d1:f2:e1:2c:42:47:f8:bc:e6:e5:63:a4:
                    40:f2:77:03:7d:81:2d:eb:33:a0:f4:a1:39:45:d8:
                    98:c2:96:4f:e3:42:e2:fe:1a:7f:9b:8e:e7:eb:4a:
                    7c:0f:9e:16:2b:ce:33:57:6b:31:5e:ce:cb:b6:40:
                    68:37:bf:51:f5
                order:  (256 bits)
                    00:ff:ff:ff:ff:00:00:00:00:ff:ff:ff:ff:ff:ff:
                    ff:ff:bc:e6:fa:ad:a7:17:9e:84:f3:b9:ca:c2:fc:
                    63:25:51
                cofactor:  (1 bit)
                    01
        Attributes:
            a0:00
    Signature Algorithm: ecr3410WithR3411 (1.3.6.1.4.1.5849.1.3.2)
        30:45:02:21:00:ab:00:06:15:e6:25:b3:b3:b1:2d:1e:24:21:
        b5:ba:6d:1f:67:6d:31:16:2b:1f:27:17:13:9a:df:45:6c:b8:
        36:02:20:20:44:f8:c6:7c:85:b8:7f:e3:94:81:11:6f:ef:d0:
        cc:3b:16:c9:9d:66:01:bc:2c:d2:18:43:6f:c3:65:f4:03
-----BEGIN CERTIFICATE REQUEST-----
MIICgTCCAiMCAQAwgd4xCzAJBgNVBAYTAlJVMRIwEAYDVQQIFAnjLiDM7vHq4uAx
EjAQBgNVBAcUCeMuIMzu8eri4DEkMCIGA1UEChQbzs7OICLQ4O/o5NHu9PIgxOXi
5evu7+zl7fIiMRkwFwYDVQQLFBDdxM4g8SDC0sEyNCAyNDQ2MR0wGwYDVQQMFBTD
5e3l8ODr/O376SDk6PDl6vLu8DEkMCIGA1UEAxQbwuDx6Ov/7SDQ7uzg7SDA6+Xq
8eDt5PDu4uj3MSEwHwYJKoZIhvcNAQkBFhJyb21hdkByYXBpZHNvZnQucnUwggE5
MIHwBgorBgEEAa1ZAQYCMIHhAgEBMCwGByqGSM49AQECIQD/////AAAAAQAAAAAA
AAAAAAAAAP///////////////zBFAiEA/////wAAAAEAAAAAAAAAAAAAAAD/////
//////////wCIFrGNdiqOpPns+u9VXaYhrxlHQawzFOw9jvOPD4n0mBLBEEEaxfR
8uEsQkf4vOblY6RA8ncDfYEt6zOg9KE5RdiYwpZP40Li/hp/m47n60p8D54WK84z
V2sxXs7LtkBoN79R9QIhAP////8AAAAA//////////+85vqtpxeehPO5ysL8YyVR
AgEBA0QABEEEhYk5ecAVYaD2I8kXiK+RkNe54JmLJ3pPvwt5gqNFoHUXe4rlK5CW
fLvG2/rkgH/RBwzw3bC0WUncR9jX1+WDUaAAMA4GCisGAQQBrVkBAwIFAANIADBF
AiEAqwAGFeYls7OxLR4kIbW6bR9nbTEWKx8nFxOa30VsuDYCICBE+MZ8hbh/45SB
EW/v0Mw7FsmdZgG8LNIYQ2/DZfQD
-----END CERTIFICATE REQUEST-----
