Certificate:
    Data:
        Version: 1 (0x0)
        Serial Number:
            01:4e:03:0a:0c:cb:01:0b:03:09:9a:5b
        Signature Algorithm: ecr3410WithR3411 (1.3.6.1.4.1.5849.1.3.2)
        Issuer: C=RU, L=МОСКВА, O=ВТБ 24 (ЗАО), CN=Удостоверяющий Центр, Email=cacenter@vtb24.ru
        Validity
            Not Before: Jul 23 13:54:29 2013 GMT
            Not After : Jul 23 13:54:29 2015 GMT
        Subject: C=RU, SP=г. Москва, L=г. Москва, O="ООО "РапидСофт Девелопмент"", OU=ЭДО с ВТБ24 2446, T=Генеральный директор, CN=Василян Роман Александрович, Email=romav@rapidsoft.ru
        Subject Public Key Info:
            Public Key Algorithm: ecr3410 (1.3.6.1.4.1.5849.1.6.2)
            ECGOST Public Key:
                pub: 
                    04:85:89:39:79:c0:15:61:a0:f6:23:c9:17:88:af:
                    91:90:d7:b9:e0:99:8b:27:7a:4f:bf:0b:79:82:a3:
                    45:a0:75:17:7b:8a:e5:2b:90:96:7c:bb:c6:db:fa:
                    e4:80:7f:d1:07:0c:f0:dd:b0:b4:59:49:dc:47:d8:
                    d7:d7:e5:83:51
                prime:  (256 bits)
                    00:ff:ff:ff:ff:00:00:00:01:00:00:00:00:00:00:
                    00:00:00:00:00:00:ff:ff:ff:ff:ff:ff:ff:ff:ff:
                    ff:ff:ff
                a:  (256 bits)
                    00:ff:ff:ff:ff:00:00:00:01:00:00:00:00:00:00:
                    00:00:00:00:00:00:ff:ff:ff:ff:ff:ff:ff:ff:ff:
                    ff:ff:fc
                b:  (255 bits)
                    5a:c6:35:d8:aa:3a:93:e7:b3:eb:bd:55:76:98:86:
                    bc:65:1d:06:b0:cc:53:b0:f6:3b:ce:3c:3e:27:d2:
                    60:4b
                base: 
                    04:6b:17:d1:f2:e1:2c:42:47:f8:bc:e6:e5:63:a4:
                    40:f2:77:03:7d:81:2d:eb:33:a0:f4:a1:39:45:d8:
                    98:c2:96:4f:e3:42:e2:fe:1a:7f:9b:8e:e7:eb:4a:
                    7c:0f:9e:16:2b:ce:33:57:6b:31:5e:ce:cb:b6:40:
                    68:37:bf:51:f5
                order:  (256 bits)
                    00:ff:ff:ff:ff:00:00:00:00:ff:ff:ff:ff:ff:ff:
                    ff:ff:bc:e6:fa:ad:a7:17:9e:84:f3:b9:ca:c2:fc:
                    63:25:51
                cofactor:  (1 bit)
                    01
    Signature Algorithm: ecr3410WithR3411 (1.3.6.1.4.1.5849.1.3.2)
        30:45:02:21:00:9d:cb:47:4c:8a:f3:5c:ae:6b:97:b1:70:d2:
        8c:db:ba:76:10:97:5d:b8:b5:3e:db:c6:44:1a:80:f6:1b:32:
        49:02:20:63:60:14:e4:35:f1:72:09:d9:5d:b8:25:4c:28:8c:
        d6:c2:b5:69:10:e9:e7:4b:64:ca:a6:11:d2:a8:d8:48:1f
-----BEGIN CERTIFICATE-----
MIICWjCCAfygAwIBAAIMAU4DCgzLAQsDCZpbMA4GCisGAQQBrVkBAwIFADB2MQsw
CQYDVQQGEwJSVTEPMA0GA1UEBxQGzM7RysLAMRUwEwYDVQQKFAzC0sEgMjQgKMfA
zikxHTAbBgNVBAMUFNPk7vHy7uLl8P/++ejpINbl7fLwMSAwHgYJKoZIhvcNAQkB
FhFjYWNlbnRlckB2dGIyNC5ydTAeFw0xMzA3MjMxMzU0MjlaFw0xNTA3MjMxMzU0
MjlaMIHeMQswCQYDVQQGEwJSVTESMBAGA1UECBQJ4y4gzO7x6uLgMRIwEAYDVQQH
FAnjLiDM7vHq4uAxJDAiBgNVBAoUG87OziAi0ODv6OTR7vTyIMTl4uXr7u/s5e3y
IjEZMBcGA1UECxQQ3cTOIPEgwtLBMjQgMjQ0NjEdMBsGA1UEDBQUw+Xt5fDg6/zt
++kg5Ojw5ery7vAxJDAiBgNVBAMUG8Lg8ejr/+0g0O7s4O0gwOvl6vHg7eTw7uLo
9zEhMB8GCSqGSIb3DQEJARYScm9tYXZAcmFwaWRzb2Z0LnJ1MF4wFgYKKwYBBAGt
WQEGAgYIKoZIzj0DAQcDRAAEQQSFiTl5wBVhoPYjyReIr5GQ17ngmYsnek+/C3mC
o0WgdRd7iuUrkJZ8u8bb+uSAf9EHDPDdsLRZSdxH2NfX5YNRMA4GCisGAQQBrVkB
AwIFAANIADBFAiEAnctHTIrzXK5rl7Fw0ozbunYQl124tT7bxkQagPYbMkkCIGNg
FOQ18XIJ2V24JUwojNbCtWkQ6edLZMqmEdKo2Egf
-----END CERTIFICATE-----
